(dp0
Vengine
p1
S'pdflatex'
p2
sVpackages
p3
c__builtin__
set
p4
((lp5
Vhyperref
p6
aVgeometry
p7
aVbabel
p8
aVamsmath
p9
aVinputenc
p10
aVfontenc
p11
aVgraphicx
p12
aVtodonotes
p13
aVamssymb
p14
atp15
Rp16
sVfiles_with_guttermarks
p17
g4
((lp18
S'M1.tex'
p19
atp20
Rp21
sVsynctex
p22
I01
s.