(dp0
Vengine
p1
S'pdflatex'
p2
sVpackages
p3
c__builtin__
set
p4
((lp5
Vhyperref
p6
aVbooktabs
p7
aVgeometry
p8
aVbabel
p9
aVsetspace
p10
aVlipsum
p11
aVamsmath
p12
aVfontenc
p13
aVgraphicx
p14
aVinputenc
p15
aVwrapfig
p16
aVtodonotes
p17
aVamssymb
p18
atp19
Rp20
sVfiles_with_guttermarks
p21
g4
((lp22
V/Users/jackburker/Documents/BIZ/ncsu/st371/tex/M2.tex
p23
aV/Users/jackburker/Documents/BIZ/ncsu/st371/tex/./M2.tex
p24
aS'M2.tex'
p25
atp26
Rp27
sVsynctex
p28
I01
s.