(dp0
Vengine
p1
S'pdflatex'
p2
sVpackages
p3
c__builtin__
set
p4
((lp5
Vhyperref
p6
aVxcolor
p7
aVbooktabs
p8
aVgeometry
p9
aVbabel
p10
aVsetspace
p11
aVlipsum
p12
aVamsmath
p13
aVinputenc
p14
aVfontenc
p15
aVgraphicx
p16
aVwrapfig
p17
aVtodonotes
p18
aVamssymb
p19
atp20
Rp21
sVfiles_with_guttermarks
p22
g4
((lp23
S'M2big.tex'
p24
atp25
Rp26
sVsynctex
p27
I01
s.